target datalayout = "e-m:e-p270:32:32-p271:32:32-p272:64:64-i64:64-i128:128-f80:128-n8:16:32:64-S128"
target triple = "x86_64-pc-linux-gnu"

%"class.smt::eq_justification" = type { ptr }
%"class.smt::justification.base" = type <{ ptr, i8 }>
%class.ref_vector.48 = type { %class.ref_vector_core.49 }
%class.ref_vector_core.49 = type { %class.ref_manager_wrapper.50, %class.ptr_vector.51 }
%class.ref_manager_wrapper.50 = type { ptr }
%class.ptr_vector.51 = type { %class.vector.52 }
%class.vector.52 = type { ptr }
%class.ptr_buffer = type { %class.buffer }
%class.buffer = type { ptr, i32, i32, [128 x i8] }
%class.ptr_vector.165 = type { %class.vector.166 }
%class.vector.166 = type { ptr }
%class.ptr_vector.163 = type { %class.vector.164 }
%class.vector.164 = type { ptr }
%class.ptr_vector = type { %class.vector.3 }
%class.vector.3 = type { ptr }
%class.svector.4 = type { %class.vector.5 }
%class.vector.5 = type { ptr }
%class.obj_ref.80 = type { ptr, ptr }
%class.svector.194 = type { %class.vector.195 }
%class.vector.195 = type { ptr }
%class.ref_vector = type { %class.ref_vector_core }
%class.ref_vector_core = type { %class.ref_manager_wrapper, %class.ptr_vector }
%class.ref_manager_wrapper = type { ptr }
%class.ref_vector.151 = type { %class.ref_vector_core.152 }
%class.ref_vector_core.152 = type { %class.ref_manager_wrapper.153, %class.ptr_vector.154 }
%class.ref_manager_wrapper.153 = type { ptr }
%class.ptr_vector.154 = type { %class.vector.155 }
%class.vector.155 = type { ptr }
%"class.smt::conflict_resolution" = type <{ ptr, ptr, ptr, ptr, ptr, ptr, i32, [4 x i8], %class.svector.194, %class.ref_vector, i32, i32, %class.ptr_vector.165, i32, [4 x i8], %class.svector.286, %class.obj_pair_set, ptr, ptr, %class.svector.289, %class.obj_map.291, %class.obj_pair_map.296, %class.map.301, %class.ref_vector.48, %class.ref_vector.151, %class.obj_ref.80, %class.svector.194, %class.svector.194, %class.svector.4, %class.svector.4, %class.approx_set_tpl, [4 x i8] }>
%class.svector.286 = type { %class.vector.287 }
%class.vector.287 = type { ptr }
%class.obj_pair_set = type { %class.chashtable.288 }
%class.chashtable.288 = type { ptr, i32, i32, i32, i32, i32, i32, i32, ptr, ptr, ptr }
%class.svector.289 = type { %class.vector.290 }
%class.vector.290 = type { ptr }
%class.obj_map.291 = type { %class.core_hashtable.292 }
%class.core_hashtable.292 = type <{ ptr, i32, i32, i32, [4 x i8] }>
%class.obj_pair_map.296 = type { %class.core_hashtable.297 }
%class.core_hashtable.297 = type <{ ptr, i32, i32, i32, [4 x i8] }>
%class.map.301 = type { %class.table2map.302 }
%class.table2map.302 = type { %class.core_hashtable.303 }
%class.core_hashtable.303 = type <{ ptr, i32, i32, i32, [4 x i8] }>
%class.approx_set_tpl = type { i32 }
%"class.smt::enode" = type { ptr, ptr, ptr, ptr, i32, i32, i32, i16, i32, i8, i8, %class.ptr_vector.163, %class.id_var_list, %"struct.smt::trans_justification", %class.approx_set, %class.approx_set, [0 x ptr] }
%class.id_var_list = type { i32, ptr }
%"struct.smt::trans_justification" = type { ptr, %"class.smt::eq_justification" }
%class.approx_set = type { %class.approx_set_tpl.307 }
%class.approx_set_tpl.307 = type { i64 }
%"class.smt::simple_justification" = type { %"class.smt::justification.base", i32, ptr }
%class.vector.308 = type { ptr }
%"class.smt::ext_simple_justification" = type { %"class.smt::simple_justification", i32, ptr }
%"class.smt::ext_theory_simple_justification" = type { %"class.smt::ext_simple_justification", i32, %class.vector.308 }
%"class.smt::ext_theory_eq_propagation_justification" = type { %"class.smt::ext_theory_simple_justification", ptr, ptr }

; Function Attrs: mustprogress nounwind uwtable
define linkonce_odr hidden void @_ZN6bufferIP3appLb0ELj16EEC2Ev(ptr noundef nonnull align 8 dereferenceable(144) %0) unnamed_addr #4 comdat align 2 {
  %2 = alloca ptr, align 8
  store ptr %0, ptr %2, align 8, !tbaa !635
  %3 = load ptr, ptr %2, align 8
  %4 = getelementptr inbounds nuw %class.buffer, ptr %3, i32 0, i32 0
  %5 = getelementptr inbounds nuw %class.buffer, ptr %3, i32 0, i32 3
  %6 = getelementptr inbounds [128 x i8], ptr %5, i64 0, i64 0
  store ptr %6, ptr %4, align 8, !tbaa !640
  %7 = getelementptr inbounds nuw %class.buffer, ptr %3, i32 0, i32 1
  store i32 0, ptr %7, align 8, !tbaa !638
  %8 = getelementptr inbounds nuw %class.buffer, ptr %3, i32 0, i32 2
  store i32 16, ptr %8, align 4, !tbaa !639
  ret void
}

; Function Attrs: mustprogress nounwind uwtable
define linkonce_odr hidden noundef ptr @_ZNK6vectorI9parameterLb1EjE4dataEv(ptr noundef nonnull align 8 dereferenceable(8) %0) #4 comdat align 2 {
  %2 = alloca ptr, align 8
  store ptr %0, ptr %2, align 8, !tbaa !682
  %3 = load ptr, ptr %2, align 8
  %4 = getelementptr inbounds nuw %class.vector.308, ptr %3, i32 0, i32 0
  %5 = load ptr, ptr %4, align 8, !tbaa !684
  ret ptr %5
}

; Function Attrs: mustprogress nounwind uwtable
define linkonce_odr hidden noundef i32 @_ZNK6vectorI9parameterLb1EjE4sizeEv(ptr noundef nonnull align 8 dereferenceable(8) %0) #4 comdat align 2 {
  %2 = alloca i32, align 4
  %3 = alloca ptr, align 8
  store ptr %0, ptr %3, align 8, !tbaa !682
  %4 = load ptr, ptr %3, align 8
  %5 = getelementptr inbounds nuw %class.vector.308, ptr %4, i32 0, i32 0
  %6 = load ptr, ptr %5, align 8, !tbaa !684
  %7 = icmp eq ptr %6, null
  br i1 %7, label %8, label %9

8:                                                ; preds = %1
  store i32 0, ptr %2, align 4
  br label %14

9:                                                ; preds = %1
  %10 = getelementptr inbounds nuw %class.vector.308, ptr %4, i32 0, i32 0
  %11 = load ptr, ptr %10, align 8, !tbaa !684
  %12 = getelementptr inbounds i32, ptr %11, i64 -1
  %13 = load i32, ptr %12, align 4, !tbaa !8
  store i32 %13, ptr %2, align 4
  br label %14

14:                                               ; preds = %9, %8
  %15 = load i32, ptr %2, align 4
  ret i32 %15
}

; Function Attrs: mustprogress nounwind uwtable
define linkonce_odr hidden noundef ptr @_ZNK6bufferIP3appLb0ELj16EE4dataEv(ptr noundef nonnull align 8 dereferenceable(144) %0) #4 comdat align 2 {
  %2 = alloca ptr, align 8
  store ptr %0, ptr %2, align 8, !tbaa !635
  %3 = load ptr, ptr %2, align 8
  %4 = getelementptr inbounds nuw %class.buffer, ptr %3, i32 0, i32 0
  %5 = load ptr, ptr %4, align 8, !tbaa !640
  ret ptr %5
}

; Function Attrs: mustprogress nounwind uwtable
define linkonce_odr hidden noundef i32 @_ZNK6bufferIP3appLb0ELj16EE4sizeEv(ptr noundef nonnull align 8 dereferenceable(144) %0) #4 comdat align 2 {
  %2 = alloca ptr, align 8
  store ptr %0, ptr %2, align 8, !tbaa !635
  %3 = load ptr, ptr %2, align 8
  %4 = getelementptr inbounds nuw %class.buffer, ptr %3, i32 0, i32 1
  %5 = load i32, ptr %4, align 8, !tbaa !638
  ret i32 %5
}

; Function Attrs: mustprogress nounwind uwtable
define linkonce_odr hidden noundef ptr @_ZNK3smt5enode8get_exprEv(ptr noundef nonnull align 8 dereferenceable(112) %0) #4 comdat align 2 {
  %2 = alloca ptr, align 8
  store ptr %0, ptr %2, align 8, !tbaa !582
  %3 = load ptr, ptr %2, align 8
  %4 = getelementptr inbounds nuw %"class.smt::enode", ptr %3, i32 0, i32 0
  %5 = load ptr, ptr %4, align 8, !tbaa !641
  ret ptr %5
}

; Function Attrs: mustprogress nounwind uwtable
define linkonce_odr hidden noundef nonnull align 8 dereferenceable(10544) ptr @_ZN3smt19conflict_resolution11get_contextEv(ptr noundef nonnull align 8 dereferenceable(356) %0) #4 comdat align 2 {
  %2 = alloca ptr, align 8
  store ptr %0, ptr %2, align 8, !tbaa !533
  %3 = load ptr, ptr %2, align 8
  %4 = getelementptr inbounds nuw %"class.smt::conflict_resolution", ptr %3, i32 0, i32 3
  %5 = load ptr, ptr %4, align 8, !tbaa !659
  ret ptr %5
}

; Function Attrs: mustprogress nounwind uwtable
define linkonce_odr hidden noundef nonnull align 8 dereferenceable(976) ptr @_ZN3smt19conflict_resolution11get_managerEv(ptr noundef nonnull align 8 dereferenceable(356) %0) #4 comdat align 2 {
  %2 = alloca ptr, align 8
  store ptr %0, ptr %2, align 8, !tbaa !533
  %3 = load ptr, ptr %2, align 8
  %4 = getelementptr inbounds nuw %"class.smt::conflict_resolution", ptr %3, i32 0, i32 1
  %5 = load ptr, ptr %4, align 8, !tbaa !571
  ret ptr %5
}

; Function Attrs: inlinehint mustprogress nounwind uwtable
define linkonce_odr hidden void @_ZN10ptr_bufferI3appLj16EEC2Ev(ptr noundef nonnull align 8 dereferenceable(144) %0) unnamed_addr #9 comdat align 2 {
  %2 = alloca ptr, align 8
  store ptr %0, ptr %2, align 8, !tbaa !592
  %3 = load ptr, ptr %2, align 8
  call void @_ZN6bufferIP3appLb0ELj16EEC2Ev(ptr noundef nonnull align 8 dereferenceable(144) %3) #3
  ret void
}

; Function Attrs: mustprogress uwtable
define hidden noundef ptr @_ZN3smt39ext_theory_eq_propagation_justification8mk_proofERNS_19conflict_resolutionE(ptr noundef nonnull align 8 dereferenceable(72) %0, ptr noundef nonnull align 8 dereferenceable(356) %1) unnamed_addr #6 align 2 personality ptr @__gxx_personality_v0 {
  %3 = alloca ptr, align 8
  %4 = alloca ptr, align 8
  %5 = alloca ptr, align 8
  %6 = alloca %class.ptr_buffer, align 8
  %7 = alloca ptr, align 8
  %8 = alloca i32, align 4
  %9 = alloca i32, align 4
  %10 = alloca ptr, align 8
  %11 = alloca ptr, align 8
  %12 = alloca ptr, align 8
  store ptr %0, ptr %4, align 8, !tbaa !738
  store ptr %1, ptr %5, align 8, !tbaa !533
  %13 = load ptr, ptr %4, align 8
  call void @llvm.lifetime.start.p0(i64 144, ptr %6) #3
  call void @_ZN10ptr_bufferI3appLj16EEC2Ev(ptr noundef nonnull align 8 dereferenceable(144) %6) #3
  %14 = load ptr, ptr %5, align 8, !tbaa !533
  %15 = invoke noundef zeroext i1 @_ZN3smt24ext_simple_justification16antecedent2proofERNS_19conflict_resolutionER10ptr_bufferI3appLj16EE(ptr noundef nonnull align 8 dereferenceable(40) %13, ptr noundef nonnull align 8 dereferenceable(356) %14, ptr noundef nonnull align 8 dereferenceable(144) %6)
          to label %16 unwind label %18

16:                                               ; preds = %2
  br i1 %15, label %22, label %17

17:                                               ; preds = %16
  store ptr null, ptr %3, align 8
  store i32 1, ptr %9, align 4
  br label %70

18:                                               ; preds = %2
  %19 = landingpad { ptr, i32 }
          cleanup
  %20 = extractvalue { ptr, i32 } %19, 0
  store ptr %20, ptr %7, align 8
  %21 = extractvalue { ptr, i32 } %19, 1
  store i32 %21, ptr %8, align 4
  br label %72

22:                                               ; preds = %16
  call void @llvm.lifetime.start.p0(i64 8, ptr %10) #3
  %23 = load ptr, ptr %5, align 8, !tbaa !533
  %24 = invoke noundef nonnull align 8 dereferenceable(976) ptr @_ZN3smt19conflict_resolution11get_managerEv(ptr noundef nonnull align 8 dereferenceable(356) %23)
          to label %25 unwind label %56

25:                                               ; preds = %22
  store ptr %24, ptr %10, align 8, !tbaa !530
  call void @llvm.lifetime.start.p0(i64 8, ptr %11) #3
  %26 = load ptr, ptr %5, align 8, !tbaa !533
  %27 = invoke noundef nonnull align 8 dereferenceable(10544) ptr @_ZN3smt19conflict_resolution11get_contextEv(ptr noundef nonnull align 8 dereferenceable(356) %26)
          to label %28 unwind label %60

28:                                               ; preds = %25
  store ptr %27, ptr %11, align 8, !tbaa !30
  call void @llvm.lifetime.start.p0(i64 8, ptr %12) #3
  %29 = load ptr, ptr %11, align 8, !tbaa !30
  %30 = getelementptr inbounds nuw %"class.smt::ext_theory_eq_propagation_justification", ptr %13, i32 0, i32 1
  %31 = load ptr, ptr %30, align 8, !tbaa !740
  %32 = invoke noundef ptr @_ZNK3smt5enode8get_exprEv(ptr noundef nonnull align 8 dereferenceable(112) %31)
          to label %33 unwind label %64

33:                                               ; preds = %28
  %34 = getelementptr inbounds nuw %"class.smt::ext_theory_eq_propagation_justification", ptr %13, i32 0, i32 2
  %35 = load ptr, ptr %34, align 8, !tbaa !742
  %36 = invoke noundef ptr @_ZNK3smt5enode8get_exprEv(ptr noundef nonnull align 8 dereferenceable(112) %35)
          to label %37 unwind label %64

37:                                               ; preds = %33
  %38 = invoke noundef ptr @_ZN3smt7context10mk_eq_atomEP4exprS2_(ptr noundef nonnull align 8 dereferenceable(10544) %29, ptr noundef %32, ptr noundef %36)
          to label %39 unwind label %64

39:                                               ; preds = %37
  store ptr %38, ptr %12, align 8, !tbaa !591
  %40 = load ptr, ptr %10, align 8, !tbaa !530
  %41 = getelementptr inbounds nuw %"class.smt::ext_theory_simple_justification", ptr %13, i32 0, i32 1
  %42 = load i32, ptr %41, align 8, !tbaa !734
  %43 = load ptr, ptr %12, align 8, !tbaa !591
  %44 = invoke noundef i32 @_ZNK6bufferIP3appLb0ELj16EE4sizeEv(ptr noundef nonnull align 8 dereferenceable(144) %6)
          to label %45 unwind label %64

45:                                               ; preds = %39
  %46 = invoke noundef ptr @_ZNK6bufferIP3appLb0ELj16EE4dataEv(ptr noundef nonnull align 8 dereferenceable(144) %6)
          to label %47 unwind label %64

47:                                               ; preds = %45
  %48 = getelementptr inbounds nuw %"class.smt::ext_theory_simple_justification", ptr %13, i32 0, i32 2
  %49 = invoke noundef i32 @_ZNK6vectorI9parameterLb1EjE4sizeEv(ptr noundef nonnull align 8 dereferenceable(8) %48)
          to label %50 unwind label %64

50:                                               ; preds = %47
  %51 = getelementptr inbounds nuw %"class.smt::ext_theory_simple_justification", ptr %13, i32 0, i32 2
  %52 = invoke noundef ptr @_ZNK6vectorI9parameterLb1EjE4dataEv(ptr noundef nonnull align 8 dereferenceable(8) %51)
          to label %53 unwind label %64

53:                                               ; preds = %50
  %54 = invoke noundef ptr @_ZN11ast_manager11mk_th_lemmaEiP4exprjPKP3appjPK9parameter(ptr noundef nonnull align 8 dereferenceable(976) %40, i32 noundef %42, ptr noundef %43, i32 noundef %44, ptr noundef %46, i32 noundef %49, ptr noundef %52)
          to label %55 unwind label %64

55:                                               ; preds = %53
  store ptr %54, ptr %3, align 8
  store i32 1, ptr %9, align 4
  call void @llvm.lifetime.end.p0(i64 8, ptr %12) #3
  call void @llvm.lifetime.end.p0(i64 8, ptr %11) #3
  call void @llvm.lifetime.end.p0(i64 8, ptr %10) #3
  br label %70

56:                                               ; preds = %22
  %57 = landingpad { ptr, i32 }
          cleanup
  %58 = extractvalue { ptr, i32 } %57, 0
  store ptr %58, ptr %7, align 8
  %59 = extractvalue { ptr, i32 } %57, 1
  store i32 %59, ptr %8, align 4
  br label %69

60:                                               ; preds = %25
  %61 = landingpad { ptr, i32 }
          cleanup
  %62 = extractvalue { ptr, i32 } %61, 0
  store ptr %62, ptr %7, align 8
  %63 = extractvalue { ptr, i32 } %61, 1
  store i32 %63, ptr %8, align 4
  br label %68

64:                                               ; preds = %53, %50, %47, %45, %39, %37, %33, %28
  %65 = landingpad { ptr, i32 }
          cleanup
  %66 = extractvalue { ptr, i32 } %65, 0
  store ptr %66, ptr %7, align 8
  %67 = extractvalue { ptr, i32 } %65, 1
  store i32 %67, ptr %8, align 4
  call void @llvm.lifetime.end.p0(i64 8, ptr %12) #3
  br label %68

68:                                               ; preds = %64, %60
  call void @llvm.lifetime.end.p0(i64 8, ptr %11) #3
  br label %69

69:                                               ; preds = %68, %56
  call void @llvm.lifetime.end.p0(i64 8, ptr %10) #3
  br label %72

70:                                               ; preds = %55, %17
  call void @_ZN6bufferIP3appLb0ELj16EED2Ev(ptr noundef nonnull align 8 dereferenceable(144) %6) #3
  call void @llvm.lifetime.end.p0(i64 144, ptr %6) #3
  %71 = load ptr, ptr %3, align 8
  ret ptr %71

72:                                               ; preds = %69, %18
  call void @_ZN6bufferIP3appLb0ELj16EED2Ev(ptr noundef nonnull align 8 dereferenceable(144) %6) #3
  call void @llvm.lifetime.end.p0(i64 144, ptr %6) #3
  br label %73

73:                                               ; preds = %72
  %74 = load ptr, ptr %7, align 8
  %75 = load i32, ptr %8, align 4
  %76 = insertvalue { ptr, i32 } poison, ptr %74, 0
  %77 = insertvalue { ptr, i32 } %76, i32 %75, 1
  resume { ptr, i32 } %77
}