; Function Attrs: mustprogress uwtable
define hidden noundef ptr @_ZN3smt39ext_theory_eq_propagation_justification8mk_proofERNS_19conflict_resolutionE(ptr noundef nonnull readonly align 8 captures(none) dereferenceable(72) %0, ptr noundef nonnull align 8 dereferenceable(356) %1) unnamed_addr #5 align 2 personality ptr @__gxx_personality_v0 {
  %3 = alloca %class.ptr_buffer, align 8
  call void @llvm.lifetime.start.p0(i64 144, ptr nonnull %3) #22
  %4 = getelementptr inbounds nuw i8, ptr %3, i64 16
  store ptr %4, ptr %3, align 8, !tbaa !117
  %5 = getelementptr inbounds nuw i8, ptr %3, i64 8
  store i32 0, ptr %5, align 8, !tbaa !119
  %6 = getelementptr inbounds nuw i8, ptr %3, i64 12
  store i32 16, ptr %6, align 4, !tbaa !120
  %7 = invoke noundef zeroext i1 @_ZN3smt24ext_simple_justification16antecedent2proofERNS_19conflict_resolutionER10ptr_bufferI3appLj16EE(ptr noundef nonnull align 8 dereferenceable(40) %0, ptr noundef nonnull align 8 dereferenceable(356) %1, ptr noundef nonnull align 8 dereferenceable(144) %3)
          to label %8 unwind label %9

8:                                                ; preds = %2
  br i1 %7, label %11, label %37

9:                                                ; preds = %2
  %10 = landingpad { ptr, i32 }
          cleanup
  br label %44

11:                                               ; preds = %8
  %12 = getelementptr inbounds nuw i8, ptr %1, i64 8
  %13 = load ptr, ptr %12, align 8, !tbaa !86
  %14 = getelementptr inbounds nuw i8, ptr %1, i64 24
  %15 = load ptr, ptr %14, align 8, !tbaa !200
  %16 = getelementptr inbounds nuw i8, ptr %0, i64 56
  %17 = load ptr, ptr %16, align 8, !tbaa !696
  %18 = load ptr, ptr %17, align 8, !tbaa !109
  %19 = getelementptr inbounds nuw i8, ptr %0, i64 64
  %20 = load ptr, ptr %19, align 8, !tbaa !698
  %21 = load ptr, ptr %20, align 8, !tbaa !109
  %22 = invoke noundef ptr @_ZN3smt7context10mk_eq_atomEP4exprS2_(ptr noundef nonnull align 8 dereferenceable(10544) %15, ptr noundef %18, ptr noundef %21)
          to label %23 unwind label %35

23:                                               ; preds = %11
  %24 = getelementptr inbounds nuw i8, ptr %0, i64 40
  %25 = load i32, ptr %24, align 8, !tbaa !694
  %26 = load i32, ptr %5, align 8, !tbaa !119
  %27 = load ptr, ptr %3, align 8, !tbaa !117
  %28 = getelementptr inbounds nuw i8, ptr %0, i64 48
  %29 = load ptr, ptr %28, align 8, !tbaa !218
  %30 = icmp eq ptr %29, null
  br i1 %30, label %_ZNK6vectorI9parameterLb1EjE4sizeEv.exit, label %31

31:                                               ; preds = %23
  %32 = getelementptr inbounds i8, ptr %29, i64 -4
  %33 = load i32, ptr %32, align 4, !tbaa !29
  br label %_ZNK6vectorI9parameterLb1EjE4sizeEv.exit

_ZNK6vectorI9parameterLb1EjE4sizeEv.exit:         ; preds = %23, %31
  %.0.i = phi i32 [ %33, %31 ], [ 0, %23 ]
  %34 = invoke noundef ptr @_ZN11ast_manager11mk_th_lemmaEiP4exprjPKP3appjPK9parameter(ptr noundef nonnull align 8 dereferenceable(976) %13, i32 noundef %25, ptr noundef %22, i32 noundef %26, ptr noundef %27, i32 noundef %.0.i, ptr noundef %29)
          to label %37 unwind label %35

35:                                               ; preds = %_ZNK6vectorI9parameterLb1EjE4sizeEv.exit, %11
  %36 = landingpad { ptr, i32 }
          cleanup
  br label %44

37:                                               ; preds = %_ZNK6vectorI9parameterLb1EjE4sizeEv.exit, %8
  %.0 = phi ptr [ null, %8 ], [ %34, %_ZNK6vectorI9parameterLb1EjE4sizeEv.exit ]
  %38 = load ptr, ptr %3, align 8, !tbaa !117
  %.not.i.i.i = icmp eq ptr %38, %4
  %39 = icmp eq ptr %38, null
  %or.cond.i.i.i = or i1 %.not.i.i.i, %39
  br i1 %or.cond.i.i.i, label %_ZN6bufferIP3appLb0ELj16EED2Ev.exit, label %40

40:                                               ; preds = %37
  invoke void @_ZN6memory10deallocateEPv(ptr noundef nonnull %38)
          to label %_ZN6bufferIP3appLb0ELj16EED2Ev.exit unwind label %41

41:                                               ; preds = %40
  %42 = landingpad { ptr, i32 }
          catch ptr null
  %43 = extractvalue { ptr, i32 } %42, 0
  call void @__clang_call_terminate(ptr %43) #23
  unreachable

_ZN6bufferIP3appLb0ELj16EED2Ev.exit:              ; preds = %37, %40
  call void @llvm.lifetime.end.p0(i64 144, ptr nonnull %3) #22
  ret ptr %.0

44:                                               ; preds = %35, %9
  %.pn = phi { ptr, i32 } [ %36, %35 ], [ %10, %9 ]
  call void @_ZN6bufferIP3appLb0ELj16EED2Ev(ptr noundef nonnull align 8 dereferenceable(144) %3) #22
  call void @llvm.lifetime.end.p0(i64 144, ptr nonnull %3) #22
  resume { ptr, i32 } %.pn
}